; Function Attrs: nounwind uwtable
define internal fastcc i32 @save_tiledesc(ptr noundef %0, ptr noundef readonly captures(none) %1) unnamed_addr #2 {
  %3 = alloca i32, align 4
  %4 = alloca [2 x i32], align 4
  call void @llvm.lifetime.start.p0(i64 8, ptr nonnull %4) #6
  %5 = getelementptr inbounds nuw i8, ptr %1, i64 24
  %6 = load ptr, ptr %5, align 8, !tbaa !35
  %7 = load i32, ptr %6, align 1, !tbaa !88
  store i32 %7, ptr %4, align 4, !tbaa !43
  %8 = getelementptr inbounds nuw i8, ptr %6, i64 4
  %9 = load i32, ptr %8, align 1, !tbaa !90
  %10 = getelementptr inbounds nuw i8, ptr %4, i64 4
  store i32 %9, ptr %10, align 4, !tbaa !43
  call void @llvm.lifetime.start.p0(i64 4, ptr nonnull %3) #6
  store i32 9, ptr %3, align 4, !tbaa !43
  %11 = getelementptr inbounds nuw i8, ptr %0, i64 48
  %12 = load ptr, ptr %11, align 8, !tbaa !46
  %13 = getelementptr inbounds nuw i8, ptr %0, i64 176
  %14 = call i32 %12(ptr noundef %0, ptr noundef nonnull %3, i64 noundef 4, ptr noundef nonnull %13) #6
  call void @llvm.lifetime.end.p0(i64 4, ptr nonnull %3) #6
  %15 = icmp eq i32 %14, 0
  br i1 %15, label %16, label %.thread

16:                                               ; preds = %2
  %17 = load ptr, ptr %11, align 8, !tbaa !46
  %18 = call i32 %17(ptr noundef nonnull %0, ptr noundef nonnull %4, i64 noundef 8, ptr noundef nonnull %13) #6
  %19 = icmp eq i32 %18, 0
  br i1 %19, label %20, label %.thread

20:                                               ; preds = %16
  %21 = load ptr, ptr %11, align 8, !tbaa !46
  %22 = load ptr, ptr %5, align 8, !tbaa !35
  %23 = getelementptr inbounds nuw i8, ptr %22, i64 8
  %24 = call i32 %21(ptr noundef nonnull %0, ptr noundef nonnull %23, i64 noundef 1, ptr noundef nonnull %13) #6
  br label %.thread

.thread:                                          ; preds = %2, %20, %16
  %.1 = phi i32 [ %24, %20 ], [ %18, %16 ], [ %14, %2 ]
  call void @llvm.lifetime.end.p0(i64 8, ptr nonnull %4) #6
  ret i32 %.1
}